; Function Attrs: mustprogress nofree norecurse nosync nounwind willreturn memory(argmem: readwrite) uwtable
define internal noundef zeroext i1 @_ZNSt17_Function_handlerIFvRN14ArgumentParser8InstanceEEZN16cmArgumentParserIZN12_GLOBAL__N_126HandleTransformPathCommandERKSt6vectorINSt7__cxx1112basic_stringIcSt11char_traitsIcESaIcEEESaISC_EER17cmExecutionStatusRKSt8functionIF11cmCMakePathRKSK_RKSC_EEbE9ArgumentsE4BindISt8optionalISC_EEERSU_N2cm18static_string_viewEMST_T_EUlS2_E_E10_M_managerERSt9_Any_dataRKS15_St18_Manager_operation(ptr noundef nonnull writeonly align 8 captures(none) dereferenceable(16) %0, ptr noundef nonnull align 8 dereferenceable(16) %1, i32 noundef %2) #15 align 2 personality ptr @__gxx_personality_v0 {
  switch i32 %2, label %_ZNSt14_Function_base13_Base_managerIZN16cmArgumentParserIZN12_GLOBAL__N_126HandleTransformPathCommandERKSt6vectorINSt7__cxx1112basic_stringIcSt11char_traitsIcESaIcEEESaIS9_EER17cmExecutionStatusRKSt8functionIF11cmCMakePathRKSH_RKS9_EEbE9ArgumentsE4BindISt8optionalIS9_EEERSR_N2cm18static_string_viewEMSQ_T_EUlRN14ArgumentParser8InstanceEE_E10_M_managerERSt9_Any_dataRKS15_St18_Manager_operation.exit [
    i32 0, label %4
    i32 1, label %5
    i32 2, label %6
  ]

4:                                                ; preds = %3
  store ptr @_ZTIZN16cmArgumentParserIZN12_GLOBAL__N_126HandleTransformPathCommandERKSt6vectorINSt7__cxx1112basic_stringIcSt11char_traitsIcESaIcEEESaIS7_EER17cmExecutionStatusRKSt8functionIF11cmCMakePathRKSF_RKS7_EEbE9ArgumentsE4BindISt8optionalIS7_EEERSP_N2cm18static_string_viewEMSO_T_EUlRN14ArgumentParser8InstanceEE_, ptr %0, align 8
  br label %_ZNSt14_Function_base13_Base_managerIZN16cmArgumentParserIZN12_GLOBAL__N_126HandleTransformPathCommandERKSt6vectorINSt7__cxx1112basic_stringIcSt11char_traitsIcESaIcEEESaIS9_EER17cmExecutionStatusRKSt8functionIF11cmCMakePathRKSH_RKS9_EEbE9ArgumentsE4BindISt8optionalIS9_EEERSR_N2cm18static_string_viewEMSQ_T_EUlRN14ArgumentParser8InstanceEE_E10_M_managerERSt9_Any_dataRKS15_St18_Manager_operation.exit

5:                                                ; preds = %3
  store ptr %1, ptr %0, align 8
  br label %_ZNSt14_Function_base13_Base_managerIZN16cmArgumentParserIZN12_GLOBAL__N_126HandleTransformPathCommandERKSt6vectorINSt7__cxx1112basic_stringIcSt11char_traitsIcESaIcEEESaIS9_EER17cmExecutionStatusRKSt8functionIF11cmCMakePathRKSH_RKS9_EEbE9ArgumentsE4BindISt8optionalIS9_EEERSR_N2cm18static_string_viewEMSQ_T_EUlRN14ArgumentParser8InstanceEE_E10_M_managerERSt9_Any_dataRKS15_St18_Manager_operation.exit

6:                                                ; preds = %3
  %.val.i = load i64, ptr %1, align 8
  store i64 %.val.i, ptr %0, align 8
  br label %_ZNSt14_Function_base13_Base_managerIZN16cmArgumentParserIZN12_GLOBAL__N_126HandleTransformPathCommandERKSt6vectorINSt7__cxx1112basic_stringIcSt11char_traitsIcESaIcEEESaIS9_EER17cmExecutionStatusRKSt8functionIF11cmCMakePathRKSH_RKS9_EEbE9ArgumentsE4BindISt8optionalIS9_EEERSR_N2cm18static_string_viewEMSQ_T_EUlRN14ArgumentParser8InstanceEE_E10_M_managerERSt9_Any_dataRKS15_St18_Manager_operation.exit

_ZNSt14_Function_base13_Base_managerIZN16cmArgumentParserIZN12_GLOBAL__N_126HandleTransformPathCommandERKSt6vectorINSt7__cxx1112basic_stringIcSt11char_traitsIcESaIcEEESaIS9_EER17cmExecutionStatusRKSt8functionIF11cmCMakePathRKSH_RKS9_EEbE9ArgumentsE4BindISt8optionalIS9_EEERSR_N2cm18static_string_viewEMSQ_T_EUlRN14ArgumentParser8InstanceEE_E10_M_managerERSt9_Any_dataRKS15_St18_Manager_operation.exit: ; preds = %3, %6, %5, %4
  ret i1 false
}